target datalayout = "e-m:e-p270:32:32-p271:32:32-p272:64:64-i64:64-i128:128-f80:128-n8:16:32:64-S128"
target triple = "x86_64-pc-linux-gnu"

%struct.Vec_Int_t_ = type { i32, i32, ptr }
%struct.Bac_Ntk_t_ = type { ptr, i32, i32, i32, i32, i32, i32, %struct.Vec_Int_t_, %struct.Vec_Int_t_, %struct.Vec_Int_t_, %struct.Vec_Str_t_, %struct.Vec_Int_t_, %struct.Vec_Int_t_, %struct.Vec_Int_t_, %struct.Vec_Int_t_, %struct.Vec_Int_t_, %struct.Vec_Int_t_, %struct.Vec_Int_t_ }
%struct.Vec_Str_t_ = type { i32, i32, ptr }
%struct.Bac_Man_t_ = type { ptr, ptr, ptr, ptr, i32, i32, ptr, ptr, ptr, %struct.Vec_Int_t_, %struct.Vec_Int_t_, %struct.Vec_Int_t_, %struct.Vec_Int_t_, ptr, ptr, [4 x i32], [73 x ptr], [73 x ptr] }

@Bac_NtkGenerateName.Buffer = internal global [100 x i8] zeroinitializer, align 16
@.str = private unnamed_addr constant [6 x i8] c"%s%s_\00", align 1
@s_Pref = internal global ptr @.str.98, align 8
@.str.1 = private unnamed_addr constant [5 x i8] c"%c%d\00", align 1

; Function Attrs: inlinehint nounwind uwtable
define internal i32 @Vec_IntEntry(ptr noundef %0, i32 noundef %1) #2 {
  %3 = alloca ptr, align 8
  %4 = alloca i32, align 4
  store ptr %0, ptr %3, align 8, !tbaa !21
  store i32 %1, ptr %4, align 4, !tbaa !8
  %5 = load ptr, ptr %3, align 8, !tbaa !21
  %6 = getelementptr inbounds nuw %struct.Vec_Int_t_, ptr %5, i32 0, i32 2
  %7 = load ptr, ptr %6, align 8, !tbaa !33
  %8 = load i32, ptr %4, align 4, !tbaa !8
  %9 = sext i32 %8 to i64
  %10 = getelementptr inbounds i32, ptr %7, i64 %9
  %11 = load i32, ptr %10, align 4, !tbaa !8
  ret i32 %11
}

; Function Attrs: inlinehint nounwind uwtable
define internal i32 @Vec_IntSize(ptr noundef %0) #2 {
  %2 = alloca ptr, align 8
  store ptr %0, ptr %2, align 8, !tbaa !21
  %3 = load ptr, ptr %2, align 8, !tbaa !21
  %4 = getelementptr inbounds nuw %struct.Vec_Int_t_, ptr %3, i32 0, i32 1
  %5 = load i32, ptr %4, align 4, !tbaa !32
  ret i32 %5
}

; Function Attrs: inlinehint nounwind uwtable
define internal ptr @Bac_ManPrimSymb(ptr noundef %0, i32 noundef %1) #2 {
  %3 = alloca ptr, align 8
  %4 = alloca i32, align 4
  store ptr %0, ptr %3, align 8, !tbaa !31
  store i32 %1, ptr %4, align 4, !tbaa !8
  %5 = load ptr, ptr %3, align 8, !tbaa !31
  %6 = getelementptr inbounds nuw %struct.Bac_Man_t_, ptr %5, i32 0, i32 17
  %7 = load i32, ptr %4, align 4, !tbaa !8
  %8 = zext i32 %7 to i64
  %9 = getelementptr inbounds nuw [73 x ptr], ptr %6, i64 0, i64 %8
  %10 = load ptr, ptr %9, align 8, !tbaa !13
  ret ptr %10
}

; Function Attrs: inlinehint nounwind uwtable
define internal ptr @Bac_ManPrimName(ptr noundef %0, i32 noundef %1) #2 {
  %3 = alloca ptr, align 8
  %4 = alloca i32, align 4
  store ptr %0, ptr %3, align 8, !tbaa !31
  store i32 %1, ptr %4, align 4, !tbaa !8
  %5 = load ptr, ptr %3, align 8, !tbaa !31
  %6 = getelementptr inbounds nuw %struct.Bac_Man_t_, ptr %5, i32 0, i32 16
  %7 = load i32, ptr %4, align 4, !tbaa !8
  %8 = zext i32 %7 to i64
  %9 = getelementptr inbounds nuw [73 x ptr], ptr %6, i64 0, i64 %8
  %10 = load ptr, ptr %9, align 8, !tbaa !13
  ret ptr %10
}

; Function Attrs: nounwind uwtable
define ptr @Bac_NtkGenerateName(ptr noundef %0, i32 noundef %1, ptr noundef %2) #0 {
  %4 = alloca ptr, align 8
  %5 = alloca i32, align 4
  %6 = alloca ptr, align 8
  %7 = alloca ptr, align 8
  %8 = alloca i32, align 4
  %9 = alloca i32, align 4
  %10 = alloca ptr, align 8
  %11 = alloca ptr, align 8
  store ptr %0, ptr %4, align 8, !tbaa !19
  store i32 %1, ptr %5, align 4, !tbaa !8
  store ptr %2, ptr %6, align 8, !tbaa !21
  call void @llvm.lifetime.start.p0(i64 8, ptr %7) #10
  call void @llvm.lifetime.start.p0(i64 4, ptr %8) #10
  call void @llvm.lifetime.start.p0(i64 4, ptr %9) #10
  call void @llvm.lifetime.start.p0(i64 8, ptr %10) #10
  %12 = load ptr, ptr %4, align 8, !tbaa !19
  %13 = getelementptr inbounds nuw %struct.Bac_Ntk_t_, ptr %12, i32 0, i32 0
  %14 = load ptr, ptr %13, align 8, !tbaa !23
  %15 = load i32, ptr %5, align 4, !tbaa !8
  %16 = call ptr @Bac_ManPrimName(ptr noundef %14, i32 noundef %15)
  store ptr %16, ptr %10, align 8, !tbaa !13
  call void @llvm.lifetime.start.p0(i64 8, ptr %11) #10
  %17 = load ptr, ptr %4, align 8, !tbaa !19
  %18 = getelementptr inbounds nuw %struct.Bac_Ntk_t_, ptr %17, i32 0, i32 0
  %19 = load ptr, ptr %18, align 8, !tbaa !23
  %20 = load i32, ptr %5, align 4, !tbaa !8
  %21 = call ptr @Bac_ManPrimSymb(ptr noundef %19, i32 noundef %20)
  store ptr %21, ptr %11, align 8, !tbaa !13
  %22 = load ptr, ptr @s_Pref, align 8, !tbaa !13
  %23 = load ptr, ptr %10, align 8, !tbaa !13
  %24 = call i32 (ptr, ptr, ...) @sprintf(ptr noundef @Bac_NtkGenerateName.Buffer, ptr noundef @.str, ptr noundef %22, ptr noundef %23) #10
  %25 = call i64 @strlen(ptr noundef @Bac_NtkGenerateName.Buffer) #11
  %26 = getelementptr inbounds nuw i8, ptr @Bac_NtkGenerateName.Buffer, i64 %25
  store ptr %26, ptr %7, align 8, !tbaa !13
  store i32 0, ptr %8, align 4, !tbaa !8
  br label %27

27:                                               ; preds = %52, %3
  %28 = load i32, ptr %8, align 4, !tbaa !8
  %29 = load ptr, ptr %6, align 8, !tbaa !21
  %30 = call i32 @Vec_IntSize(ptr noundef %29)
  %31 = icmp slt i32 %28, %30
  br i1 %31, label %32, label %36

32:                                               ; preds = %27
  %33 = load ptr, ptr %6, align 8, !tbaa !21
  %34 = load i32, ptr %8, align 4, !tbaa !8
  %35 = call i32 @Vec_IntEntry(ptr noundef %33, i32 noundef %34)
  store i32 %35, ptr %9, align 4, !tbaa !8
  br label %36

36:                                               ; preds = %32, %27
  %37 = phi i1 [ false, %27 ], [ true, %32 ]
  br i1 %37, label %38, label %55

38:                                               ; preds = %36
  %39 = load ptr, ptr %7, align 8, !tbaa !13
  %40 = load ptr, ptr %11, align 8, !tbaa !13
  %41 = load i32, ptr %8, align 4, !tbaa !8
  %42 = sext i32 %41 to i64
  %43 = getelementptr inbounds i8, ptr %40, i64 %42
  %44 = load i8, ptr %43, align 1, !tbaa !29
  %45 = sext i8 %44 to i32
  %46 = load i32, ptr %9, align 4, !tbaa !8
  %47 = call i32 (ptr, ptr, ...) @sprintf(ptr noundef %39, ptr noundef @.str.1, i32 noundef %45, i32 noundef %46) #10
  %48 = load ptr, ptr %7, align 8, !tbaa !13
  %49 = call i64 @strlen(ptr noundef %48) #11
  %50 = load ptr, ptr %7, align 8, !tbaa !13
  %51 = getelementptr inbounds nuw i8, ptr %50, i64 %49
  store ptr %51, ptr %7, align 8, !tbaa !13
  br label %52

52:                                               ; preds = %38
  %53 = load i32, ptr %8, align 4, !tbaa !8
  %54 = add nsw i32 %53, 1
  store i32 %54, ptr %8, align 4, !tbaa !8
  br label %27, !llvm.loop !30

55:                                               ; preds = %36
  call void @llvm.lifetime.end.p0(i64 8, ptr %11) #10
  call void @llvm.lifetime.end.p0(i64 8, ptr %10) #10
  call void @llvm.lifetime.end.p0(i64 4, ptr %9) #10
  call void @llvm.lifetime.end.p0(i64 4, ptr %8) #10
  call void @llvm.lifetime.end.p0(i64 8, ptr %7) #10
  ret ptr @Bac_NtkGenerateName.Buffer
}