; Function Attrs: nofree nounwind uwtable
define noundef nonnull ptr @Bac_NtkGenerateName(ptr noundef readonly captures(none) %0, i32 noundef %1, ptr noundef readonly captures(none) %2) local_unnamed_addr #2 {
  %4 = load ptr, ptr %0, align 8, !tbaa !16
  %5 = getelementptr inbounds nuw i8, ptr %4, i64 160
  %6 = zext i32 %1 to i64
  %7 = getelementptr inbounds nuw [73 x ptr], ptr %5, i64 0, i64 %6
  %8 = load ptr, ptr %7, align 8, !tbaa !13
  %9 = getelementptr inbounds nuw i8, ptr %4, i64 744
  %10 = getelementptr inbounds nuw [73 x ptr], ptr %9, i64 0, i64 %6
  %11 = load ptr, ptr %10, align 8, !tbaa !13
  %12 = tail call i32 (ptr, ptr, ...) @sprintf(ptr noundef nonnull dereferenceable(1) @Bac_NtkGenerateName.Buffer, ptr noundef nonnull dereferenceable(1) @.str, ptr noundef nonnull @.str.98, ptr noundef %8) #21
  %13 = getelementptr i8, ptr %2, i64 4
  %.val17 = load i32, ptr %13, align 4, !tbaa !22
  %14 = icmp sgt i32 %.val17, 0
  br i1 %14, label %.lr.ph, label %.critedge

.lr.ph:                                           ; preds = %3
  %15 = tail call i64 @strlen(ptr noundef nonnull dereferenceable(1) @Bac_NtkGenerateName.Buffer) #22
  %16 = getelementptr inbounds nuw i8, ptr @Bac_NtkGenerateName.Buffer, i64 %15
  %17 = getelementptr i8, ptr %2, i64 8
  br label %18

18:                                               ; preds = %.lr.ph, %18
  %indvars.iv = phi i64 [ 0, %.lr.ph ], [ %indvars.iv.next, %18 ]
  %.019 = phi ptr [ %16, %.lr.ph ], [ %26, %18 ]
  %.val16 = load ptr, ptr %17, align 8, !tbaa !23
  %19 = getelementptr inbounds nuw i32, ptr %.val16, i64 %indvars.iv
  %20 = load i32, ptr %19, align 4, !tbaa !24
  %21 = getelementptr inbounds nuw i8, ptr %11, i64 %indvars.iv
  %22 = load i8, ptr %21, align 1, !tbaa !25
  %23 = sext i8 %22 to i32
  %24 = tail call i32 (ptr, ptr, ...) @sprintf(ptr noundef nonnull dereferenceable(1) %.019, ptr noundef nonnull dereferenceable(1) @.str.1, i32 noundef %23, i32 noundef %20) #21
  %25 = tail call i64 @strlen(ptr noundef nonnull dereferenceable(1) %.019) #22
  %26 = getelementptr inbounds nuw i8, ptr %.019, i64 %25
  %indvars.iv.next = add nuw nsw i64 %indvars.iv, 1
  %.val = load i32, ptr %13, align 4, !tbaa !22
  %27 = sext i32 %.val to i64
  %28 = icmp slt i64 %indvars.iv.next, %27
  br i1 %28, label %18, label %.critedge, !llvm.loop !26

.critedge:                                        ; preds = %18, %3
  ret ptr @Bac_NtkGenerateName.Buffer
}